target datalayout = "e-m:e-p270:32:32-p271:32:32-p272:64:64-i64:64-i128:128-f80:128-n8:16:32:64-S128"
target triple = "x86_64-pc-linux-gnu"

%"class.cv::Mat" = type { i32, i32, i32, i32, ptr, ptr, ptr, ptr, ptr, ptr, %"struct.cv::MatSize", %"struct.cv::MatStep" }
%"struct.cv::MatSize" = type { ptr }
%"struct.cv::MatStep" = type { ptr, [2 x i64] }

; Function Attrs: inlinehint mustprogress nounwind uwtable
define linkonce_odr hidden noundef nonnull align 4 dereferenceable(4) ptr @_ZN2cv3Mat2atIfEERT_ii(ptr noundef nonnull align 8 dereferenceable(96) %0, i32 noundef %1, i32 noundef %2) #6 comdat align 2 {
  %4 = alloca ptr, align 8
  %5 = alloca i32, align 4
  %6 = alloca i32, align 4
  store ptr %0, ptr %4, align 8, !tbaa !3
  store i32 %1, ptr %5, align 4, !tbaa !8
  store i32 %2, ptr %6, align 4, !tbaa !8
  %7 = load ptr, ptr %4, align 8
  %8 = getelementptr inbounds nuw %"class.cv::Mat", ptr %7, i32 0, i32 4
  %9 = load ptr, ptr %8, align 8, !tbaa !25
  %10 = getelementptr inbounds nuw %"class.cv::Mat", ptr %7, i32 0, i32 11
  %11 = getelementptr inbounds nuw %"struct.cv::MatStep", ptr %10, i32 0, i32 0
  %12 = load ptr, ptr %11, align 8, !tbaa !26
  %13 = getelementptr inbounds i64, ptr %12, i64 0
  %14 = load i64, ptr %13, align 8, !tbaa !27
  %15 = load i32, ptr %5, align 4, !tbaa !8
  %16 = sext i32 %15 to i64
  %17 = mul i64 %14, %16
  %18 = getelementptr inbounds nuw i8, ptr %9, i64 %17
  %19 = load i32, ptr %6, align 4, !tbaa !8
  %20 = sext i32 %19 to i64
  %21 = getelementptr inbounds float, ptr %18, i64 %20
  ret ptr %21
}

; Function Attrs: inlinehint mustprogress nounwind uwtable
define linkonce_odr hidden noundef float @_ZN2cv8chebpolyEif(i32 noundef %0, float noundef %1) #6 comdat {
  %3 = alloca i32, align 4
  %4 = alloca float, align 4
  %5 = alloca float, align 4
  store i32 %0, ptr %3, align 4, !tbaa !8
  store float %1, ptr %4, align 4, !tbaa !20
  call void @llvm.lifetime.start.p0(i64 4, ptr %5) #3
  %6 = load float, ptr %4, align 4, !tbaa !20
  %7 = fpext float %6 to double
  %8 = call double @llvm.fabs.f64(double %7)
  %9 = fcmp ole double %8, 1.000000e+00
  br i1 %9, label %10, label %19

10:                                               ; preds = %2
  %11 = load i32, ptr %3, align 4, !tbaa !8
  %12 = sitofp i32 %11 to double
  %13 = load float, ptr %4, align 4, !tbaa !20
  %14 = fpext float %13 to double
  %15 = call double @acos(double noundef %14) #3, !tbaa !8
  %16 = fmul double %12, %15
  %17 = call double @cos(double noundef %16) #3, !tbaa !8
  %18 = fptrunc double %17 to float
  store float %18, ptr %5, align 4, !tbaa !20
  br label %28

19:                                               ; preds = %2
  %20 = load i32, ptr %3, align 4, !tbaa !8
  %21 = sitofp i32 %20 to double
  %22 = load float, ptr %4, align 4, !tbaa !20
  %23 = fpext float %22 to double
  %24 = call double @acosh(double noundef %23) #3, !tbaa !8
  %25 = fmul double %21, %24
  %26 = call double @cosh(double noundef %25) #3, !tbaa !8
  %27 = fptrunc double %26 to float
  store float %27, ptr %5, align 4, !tbaa !20
  br label %28

28:                                               ; preds = %19, %10
  %29 = load float, ptr %5, align 4, !tbaa !20
  call void @llvm.lifetime.end.p0(i64 4, ptr %5) #3
  ret float %29
}

; Function Attrs: inlinehint mustprogress nounwind uwtable
define linkonce_odr noundef double @_ZSt3powIifEN9__gnu_cxx11__promote_2IT_T0_NS0_9__promoteIS2_Xsr3std12__is_integerIS2_EE7__valueEE6__typeENS4_IS3_Xsr3std12__is_integerIS3_EE7__valueEE6__typeEE6__typeES2_S3_(i32 noundef %0, float noundef %1) #6 comdat {
  %3 = alloca i32, align 4
  %4 = alloca float, align 4
  store i32 %0, ptr %3, align 4, !tbaa !8
  store float %1, ptr %4, align 4, !tbaa !20
  %5 = load i32, ptr %3, align 4, !tbaa !8
  %6 = sitofp i32 %5 to double
  %7 = load float, ptr %4, align 4, !tbaa !20
  %8 = fpext float %7 to double
  %9 = call double @pow(double noundef %6, double noundef %8) #3, !tbaa !8
  ret double %9
}

; Function Attrs: mustprogress uwtable
define internal void @_ZN2cvL7chebwinEif(ptr dead_on_unwind noalias writable sret(%"class.cv::Mat") align 8 %0, i32 noundef %1, float noundef %2) #4 personality ptr @__gxx_personality_v0 {
  %4 = alloca ptr, align 8
  %5 = alloca i32, align 4
  %6 = alloca float, align 4
  %7 = alloca i1, align 1
  %8 = alloca i32, align 4
  %9 = alloca i32, align 4
  %10 = alloca float, align 4
  %11 = alloca float, align 4
  %12 = alloca float, align 4
  %13 = alloca float, align 4
  %14 = alloca float, align 4
  %15 = alloca ptr, align 8
  %16 = alloca i32, align 4
  %17 = alloca float, align 4
  store ptr %0, ptr %4, align 8
  store i32 %1, ptr %5, align 4, !tbaa !8
  store float %2, ptr %6, align 4, !tbaa !20
  store i1 false, ptr %7, align 1
  %18 = load i32, ptr %5, align 4, !tbaa !8
  call void @_ZN2cv3MatC1Eiii(ptr noundef nonnull align 8 dereferenceable(96) %0, i32 noundef %18, i32 noundef 1, i32 noundef 5)
  call void @llvm.lifetime.start.p0(i64 4, ptr %8) #3
  call void @llvm.lifetime.start.p0(i64 4, ptr %9) #3
  call void @llvm.lifetime.start.p0(i64 4, ptr %10) #3
  call void @llvm.lifetime.start.p0(i64 4, ptr %11) #3
  call void @llvm.lifetime.start.p0(i64 4, ptr %12) #3
  store float 0.000000e+00, ptr %12, align 4, !tbaa !20
  call void @llvm.lifetime.start.p0(i64 4, ptr %13) #3
  store float 0.000000e+00, ptr %13, align 4, !tbaa !20
  call void @llvm.lifetime.start.p0(i64 4, ptr %14) #3
  %19 = load float, ptr %6, align 4, !tbaa !20
  %20 = fdiv float %19, 2.000000e+01
  %21 = invoke noundef double @_ZSt3powIifEN9__gnu_cxx11__promote_2IT_T0_NS0_9__promoteIS2_Xsr3std12__is_integerIS2_EE7__valueEE6__typeENS4_IS3_Xsr3std12__is_integerIS3_EE7__valueEE6__typeEE6__typeES2_S3_(i32 noundef 10, float noundef %20)
          to label %22 unwind label %45

22:                                               ; preds = %3
  %23 = fptrunc double %21 to float
  store float %23, ptr %14, align 4, !tbaa !20
  call void @llvm.lifetime.start.p0(i64 4, ptr %17) #3
  %24 = load i32, ptr %5, align 4, !tbaa !8
  %25 = sub nsw i32 %24, 1
  %26 = sitofp i32 %25 to float
  %27 = fdiv float 1.000000e+00, %26
  %28 = fpext float %27 to double
  %29 = load float, ptr %14, align 4, !tbaa !20
  %30 = fpext float %29 to double
  %31 = call double @acosh(double noundef %30) #3, !tbaa !8
  %32 = fmul double %28, %31
  %33 = call double @cosh(double noundef %32) #3, !tbaa !8
  %34 = fptrunc double %33 to float
  store float %34, ptr %17, align 4, !tbaa !20
  %35 = load i32, ptr %5, align 4, !tbaa !8
  %36 = sub nsw i32 %35, 1
  %37 = sitofp i32 %36 to float
  %38 = fdiv float %37, 2.000000e+00
  store float %38, ptr %10, align 4, !tbaa !20
  %39 = load i32, ptr %5, align 4, !tbaa !8
  %40 = srem i32 %39, 2
  %41 = icmp eq i32 %40, 0
  br i1 %41, label %42, label %49

42:                                               ; preds = %22
  %43 = load float, ptr %10, align 4, !tbaa !20
  %44 = fadd float %43, 5.000000e-01
  store float %44, ptr %10, align 4, !tbaa !20
  br label %49

45:                                               ; preds = %3
  %46 = landingpad { ptr, i32 }
          cleanup
  %47 = extractvalue { ptr, i32 } %46, 0
  store ptr %47, ptr %15, align 8
  %48 = extractvalue { ptr, i32 } %46, 1
  store i32 %48, ptr %16, align 4
  br label %151

49:                                               ; preds = %42, %22
  store i32 0, ptr %8, align 4, !tbaa !8
  br label %50

50:                                               ; preds = %131, %49
  %51 = load i32, ptr %8, align 4, !tbaa !8
  %52 = load i32, ptr %5, align 4, !tbaa !8
  %53 = sdiv i32 %52, 2
  %54 = add nsw i32 %53, 1
  %55 = icmp slt i32 %51, %54
  br i1 %55, label %56, label %134

56:                                               ; preds = %50
  %57 = load i32, ptr %8, align 4, !tbaa !8
  %58 = sitofp i32 %57 to float
  %59 = load float, ptr %10, align 4, !tbaa !20
  %60 = fsub float %58, %59
  store float %60, ptr %11, align 4, !tbaa !20
  store float 0.000000e+00, ptr %12, align 4, !tbaa !20
  store i32 1, ptr %9, align 4, !tbaa !8
  br label %61

61:                                               ; preds = %95, %56
  %62 = load i32, ptr %9, align 4, !tbaa !8
  %63 = sitofp i32 %62 to float
  %64 = load float, ptr %10, align 4, !tbaa !20
  %65 = fcmp ole float %63, %64
  br i1 %65, label %66, label %102

66:                                               ; preds = %61
  %67 = load i32, ptr %5, align 4, !tbaa !8
  %68 = sub nsw i32 %67, 1
  %69 = load float, ptr %17, align 4, !tbaa !20
  %70 = load i32, ptr %9, align 4, !tbaa !8
  %71 = sitofp i32 %70 to double
  %72 = fmul double 0x400921FB54442D18, %71
  %73 = load i32, ptr %5, align 4, !tbaa !8
  %74 = sitofp i32 %73 to double
  %75 = fdiv double %72, %74
  %76 = call double @cos(double noundef %75) #3, !tbaa !8
  %77 = fptrunc double %76 to float
  %78 = fmul float %69, %77
  %79 = invoke noundef float @_ZN2cv8chebpolyEif(i32 noundef %68, float noundef %78)
          to label %80 unwind label %98

80:                                               ; preds = %66
  %81 = load float, ptr %11, align 4, !tbaa !20
  %82 = fmul float 2.000000e+00, %81
  %83 = fpext float %82 to double
  %84 = fmul double %83, 0x400921FB54442D18
  %85 = load i32, ptr %9, align 4, !tbaa !8
  %86 = sitofp i32 %85 to double
  %87 = fmul double %84, %86
  %88 = load i32, ptr %5, align 4, !tbaa !8
  %89 = sitofp i32 %88 to double
  %90 = fdiv double %87, %89
  %91 = call double @cos(double noundef %90) #3, !tbaa !8
  %92 = fptrunc double %91 to float
  %93 = load float, ptr %12, align 4, !tbaa !20
  %94 = call float @llvm.fmuladd.f32(float %79, float %92, float %93)
  store float %94, ptr %12, align 4, !tbaa !20
  br label %95

95:                                               ; preds = %80
  %96 = load i32, ptr %9, align 4, !tbaa !8
  %97 = add nsw i32 %96, 1
  store i32 %97, ptr %9, align 4, !tbaa !8
  br label %61, !llvm.loop !88

98:                                               ; preds = %139, %125, %118, %111, %108, %102, %66
  %99 = landingpad { ptr, i32 }
          cleanup
  %100 = extractvalue { ptr, i32 } %99, 0
  store ptr %100, ptr %15, align 8
  %101 = extractvalue { ptr, i32 } %99, 1
  store i32 %101, ptr %16, align 4
  call void @llvm.lifetime.end.p0(i64 4, ptr %17) #3
  br label %151

102:                                              ; preds = %61
  %103 = load float, ptr %14, align 4, !tbaa !20
  %104 = load float, ptr %12, align 4, !tbaa !20
  %105 = call float @llvm.fmuladd.f32(float 2.000000e+00, float %104, float %103)
  %106 = load i32, ptr %8, align 4, !tbaa !8
  %107 = invoke noundef nonnull align 4 dereferenceable(4) ptr @_ZN2cv3Mat2atIfEERT_ii(ptr noundef nonnull align 8 dereferenceable(96) %0, i32 noundef %106, i32 noundef 0)
          to label %108 unwind label %98

108:                                              ; preds = %102
  store float %105, ptr %107, align 4, !tbaa !20
  %109 = load i32, ptr %8, align 4, !tbaa !8
  %110 = invoke noundef nonnull align 4 dereferenceable(4) ptr @_ZN2cv3Mat2atIfEERT_ii(ptr noundef nonnull align 8 dereferenceable(96) %0, i32 noundef %109, i32 noundef 0)
          to label %111 unwind label %98

111:                                              ; preds = %108
  %112 = load float, ptr %110, align 4, !tbaa !20
  %113 = load i32, ptr %5, align 4, !tbaa !8
  %114 = load i32, ptr %8, align 4, !tbaa !8
  %115 = sub nsw i32 %113, %114
  %116 = sub nsw i32 %115, 1
  %117 = invoke noundef nonnull align 4 dereferenceable(4) ptr @_ZN2cv3Mat2atIfEERT_ii(ptr noundef nonnull align 8 dereferenceable(96) %0, i32 noundef %116, i32 noundef 0)
          to label %118 unwind label %98

118:                                              ; preds = %111
  store float %112, ptr %117, align 4, !tbaa !20
  %119 = load i32, ptr %8, align 4, !tbaa !8
  %120 = invoke noundef nonnull align 4 dereferenceable(4) ptr @_ZN2cv3Mat2atIfEERT_ii(ptr noundef nonnull align 8 dereferenceable(96) %0, i32 noundef %119, i32 noundef 0)
          to label %121 unwind label %98

121:                                              ; preds = %118
  %122 = load float, ptr %120, align 4, !tbaa !20
  %123 = load float, ptr %13, align 4, !tbaa !20
  %124 = fcmp ogt float %122, %123
  br i1 %124, label %125, label %130

125:                                              ; preds = %121
  %126 = load i32, ptr %8, align 4, !tbaa !8
  %127 = invoke noundef nonnull align 4 dereferenceable(4) ptr @_ZN2cv3Mat2atIfEERT_ii(ptr noundef nonnull align 8 dereferenceable(96) %0, i32 noundef %126, i32 noundef 0)
          to label %128 unwind label %98

128:                                              ; preds = %125
  %129 = load float, ptr %127, align 4, !tbaa !20
  store float %129, ptr %13, align 4, !tbaa !20
  br label %130

130:                                              ; preds = %128, %121
  br label %131

131:                                              ; preds = %130
  %132 = load i32, ptr %8, align 4, !tbaa !8
  %133 = add nsw i32 %132, 1
  store i32 %133, ptr %8, align 4, !tbaa !8
  br label %50, !llvm.loop !89

134:                                              ; preds = %50
  store i32 0, ptr %8, align 4, !tbaa !8
  br label %135

135:                                              ; preds = %146, %134
  %136 = load i32, ptr %8, align 4, !tbaa !8
  %137 = load i32, ptr %5, align 4, !tbaa !8
  %138 = icmp slt i32 %136, %137
  br i1 %138, label %139, label %149

139:                                              ; preds = %135
  %140 = load float, ptr %13, align 4, !tbaa !20
  %141 = load i32, ptr %8, align 4, !tbaa !8
  %142 = invoke noundef nonnull align 4 dereferenceable(4) ptr @_ZN2cv3Mat2atIfEERT_ii(ptr noundef nonnull align 8 dereferenceable(96) %0, i32 noundef %141, i32 noundef 0)
          to label %143 unwind label %98

143:                                              ; preds = %139
  %144 = load float, ptr %142, align 4, !tbaa !20
  %145 = fdiv float %144, %140
  store float %145, ptr %142, align 4, !tbaa !20
  br label %146

146:                                              ; preds = %143
  %147 = load i32, ptr %8, align 4, !tbaa !8
  %148 = add nsw i32 %147, 1
  store i32 %148, ptr %8, align 4, !tbaa !8
  br label %135, !llvm.loop !90

149:                                              ; preds = %135
  store i1 true, ptr %7, align 1
  call void @llvm.lifetime.end.p0(i64 4, ptr %17) #3
  call void @llvm.lifetime.end.p0(i64 4, ptr %14) #3
  call void @llvm.lifetime.end.p0(i64 4, ptr %13) #3
  call void @llvm.lifetime.end.p0(i64 4, ptr %12) #3
  call void @llvm.lifetime.end.p0(i64 4, ptr %11) #3
  call void @llvm.lifetime.end.p0(i64 4, ptr %10) #3
  call void @llvm.lifetime.end.p0(i64 4, ptr %9) #3
  call void @llvm.lifetime.end.p0(i64 4, ptr %8) #3
  %150 = load i1, ptr %7, align 1
  br i1 %150, label %153, label %152

151:                                              ; preds = %98, %45
  call void @llvm.lifetime.end.p0(i64 4, ptr %14) #3
  call void @llvm.lifetime.end.p0(i64 4, ptr %13) #3
  call void @llvm.lifetime.end.p0(i64 4, ptr %12) #3
  call void @llvm.lifetime.end.p0(i64 4, ptr %11) #3
  call void @llvm.lifetime.end.p0(i64 4, ptr %10) #3
  call void @llvm.lifetime.end.p0(i64 4, ptr %9) #3
  call void @llvm.lifetime.end.p0(i64 4, ptr %8) #3
  call void @_ZN2cv3MatD1Ev(ptr noundef nonnull align 8 dereferenceable(96) %0) #3
  br label %154

152:                                              ; preds = %149
  call void @_ZN2cv3MatD1Ev(ptr noundef nonnull align 8 dereferenceable(96) %0) #3
  br label %153

153:                                              ; preds = %152, %149
  ret void

154:                                              ; preds = %151
  %155 = load ptr, ptr %15, align 8
  %156 = load i32, ptr %16, align 4
  %157 = insertvalue { ptr, i32 } poison, ptr %155, 0
  %158 = insertvalue { ptr, i32 } %157, i32 %156, 1
  resume { ptr, i32 } %158
}