; Function Attrs: mustprogress uwtable
define internal fastcc void @_ZN2cvL7chebwinEif(ptr dead_on_unwind noalias nonnull writable align 8 %0, i32 noundef %1, float noundef %2) unnamed_addr #3 personality ptr @__gxx_personality_v0 {
  tail call void @_ZN2cv3MatC1Eiii(ptr noundef nonnull align 8 dereferenceable(96) %0, i32 noundef %1, i32 noundef 1, i32 noundef 5)
  %4 = fdiv float %2, 2.000000e+01
  %5 = fpext float %4 to double
  %6 = tail call noundef double @pow(double noundef 1.000000e+01, double noundef %5) #21, !tbaa !40
  %7 = fptrunc double %6 to float
  %8 = add nsw i32 %1, -1
  %9 = sitofp i32 %8 to float
  %10 = fdiv float 1.000000e+00, %9
  %11 = fpext float %10 to double
  %12 = fpext float %7 to double
  %13 = tail call double @acosh(double noundef %12) #21, !tbaa !40
  %14 = fmul double %13, %11
  %15 = tail call double @cosh(double noundef %14) #21, !tbaa !40
  %16 = fptrunc double %15 to float
  %17 = fmul float %9, 5.000000e-01
  %18 = and i32 %1, 1
  %19 = icmp eq i32 %18, 0
  %20 = fadd float %17, 5.000000e-01
  %.041 = select i1 %19, float %20, float %17
  %21 = sdiv i32 %1, 2
  %.not44 = icmp slt i32 %1, -1
  br i1 %.not44, label %._crit_edge52, label %.lr.ph48

.lr.ph48:                                         ; preds = %3
  %22 = fcmp ult float %.041, 1.000000e+00
  %23 = sitofp i32 %1 to double
  %24 = sitofp i32 %8 to double
  %25 = getelementptr inbounds nuw i8, ptr %0, i64 16
  %26 = load ptr, ptr %25, align 8, !tbaa !17
  %27 = getelementptr inbounds nuw i8, ptr %0, i64 72
  %28 = load ptr, ptr %27, align 8, !tbaa !18
  %29 = load i64, ptr %28, align 8, !tbaa !19
  br i1 %22, label %.lr.ph48.split.us, label %.lr.ph.preheader

.lr.ph.preheader:                                 ; preds = %.lr.ph48
  %30 = add nsw i32 %21, 1
  %wide.trip.count = zext i32 %30 to i64
  br label %.lr.ph

.lr.ph48.split.us:                                ; preds = %.lr.ph48
  %31 = fadd float %7, 0.000000e+00
  %32 = add nsw i32 %21, 1
  %wide.trip.count58 = zext i32 %32 to i64
  br label %33

33:                                               ; preds = %33, %.lr.ph48.split.us
  %indvars.iv55 = phi i64 [ %indvars.iv.next56, %33 ], [ 0, %.lr.ph48.split.us ]
  %.03745.us = phi float [ %.138.us, %33 ], [ 0.000000e+00, %.lr.ph48.split.us ]
  %34 = mul i64 %29, %indvars.iv55
  %35 = getelementptr inbounds nuw i8, ptr %26, i64 %34
  store float %31, ptr %35, align 4, !tbaa !21
  %36 = trunc i64 %indvars.iv55 to i32
  %37 = xor i32 %36, -1
  %38 = add i32 %1, %37
  %39 = sext i32 %38 to i64
  %40 = mul i64 %29, %39
  %41 = getelementptr inbounds nuw i8, ptr %26, i64 %40
  store float %31, ptr %41, align 4, !tbaa !21
  %42 = load float, ptr %35, align 4, !tbaa !21
  %43 = fcmp ogt float %42, %.03745.us
  %.138.us = select i1 %43, float %42, float %.03745.us
  %indvars.iv.next56 = add nuw nsw i64 %indvars.iv55, 1
  %exitcond59.not = icmp eq i64 %indvars.iv.next56, %wide.trip.count58
  br i1 %exitcond59.not, label %.preheader, label %33, !llvm.loop !127

.preheader:                                       ; preds = %._crit_edge, %33
  %.037.lcssa = phi float [ %.138.us, %33 ], [ %.138, %._crit_edge ]
  %44 = icmp sgt i32 %1, 0
  br i1 %44, label %.lr.ph51, label %._crit_edge52

.lr.ph51:                                         ; preds = %.preheader
  %45 = getelementptr inbounds nuw i8, ptr %0, i64 16
  %46 = load ptr, ptr %45, align 8, !tbaa !17
  %47 = getelementptr inbounds nuw i8, ptr %0, i64 72
  %48 = load ptr, ptr %47, align 8, !tbaa !18
  %49 = load i64, ptr %48, align 8, !tbaa !19
  %wide.trip.count63 = zext nneg i32 %1 to i64
  br label %93

.lr.ph:                                           ; preds = %.lr.ph.preheader, %._crit_edge
  %indvars.iv = phi i64 [ 0, %.lr.ph.preheader ], [ %indvars.iv.next, %._crit_edge ]
  %.03745 = phi float [ 0.000000e+00, %.lr.ph.preheader ], [ %.138, %._crit_edge ]
  %50 = trunc nuw nsw i64 %indvars.iv to i32
  %51 = uitofp nneg i32 %50 to float
  %52 = fsub float %51, %.041
  %53 = fmul float %52, 2.000000e+00
  %54 = fpext float %53 to double
  %55 = fmul double %54, 0x400921FB54442D18
  br label %56

56:                                               ; preds = %.lr.ph, %_ZN2cv8chebpolyEif.exit
  %.03943 = phi float [ 0.000000e+00, %.lr.ph ], [ %78, %_ZN2cv8chebpolyEif.exit ]
  %.04042 = phi i32 [ 1, %.lr.ph ], [ %79, %_ZN2cv8chebpolyEif.exit ]
  %57 = uitofp nneg i32 %.04042 to double
  %58 = fmul double %57, 0x400921FB54442D18
  %59 = fdiv double %58, %23
  %60 = tail call double @cos(double noundef %59) #21, !tbaa !40
  %61 = fptrunc double %60 to float
  %62 = fmul float %16, %61
  %63 = fpext float %62 to double
  %64 = tail call double @llvm.fabs.f64(double %63)
  %65 = fcmp ugt double %64, 1.000000e+00
  br i1 %65, label %70, label %66

66:                                               ; preds = %56
  %67 = tail call double @acos(double noundef %63) #21, !tbaa !40
  %68 = fmul double %67, %24
  %69 = tail call double @cos(double noundef %68) #21, !tbaa !40
  br label %_ZN2cv8chebpolyEif.exit

70:                                               ; preds = %56
  %71 = tail call double @acosh(double noundef %63) #21, !tbaa !40
  %72 = fmul double %71, %24
  %73 = tail call double @cosh(double noundef %72) #21, !tbaa !40
  br label %_ZN2cv8chebpolyEif.exit

_ZN2cv8chebpolyEif.exit:                          ; preds = %66, %70
  %.0.in.i = phi double [ %69, %66 ], [ %73, %70 ]
  %.0.i = fptrunc double %.0.in.i to float
  %74 = fmul double %55, %57
  %75 = fdiv double %74, %23
  %76 = tail call double @cos(double noundef %75) #21, !tbaa !40
  %77 = fptrunc double %76 to float
  %78 = tail call float @llvm.fmuladd.f32(float %.0.i, float %77, float %.03943)
  %79 = add nuw nsw i32 %.04042, 1
  %80 = uitofp nneg i32 %79 to float
  %81 = fcmp ult float %.041, %80
  br i1 %81, label %._crit_edge, label %56, !llvm.loop !128

._crit_edge:                                      ; preds = %_ZN2cv8chebpolyEif.exit
  %82 = tail call float @llvm.fmuladd.f32(float %78, float 2.000000e+00, float %7)
  %83 = mul i64 %29, %indvars.iv
  %84 = getelementptr inbounds nuw i8, ptr %26, i64 %83
  store float %82, ptr %84, align 4, !tbaa !21
  %85 = trunc i64 %indvars.iv to i32
  %86 = xor i32 %85, -1
  %87 = add i32 %1, %86
  %88 = sext i32 %87 to i64
  %89 = mul i64 %29, %88
  %90 = getelementptr inbounds nuw i8, ptr %26, i64 %89
  store float %82, ptr %90, align 4, !tbaa !21
  %91 = load float, ptr %84, align 4, !tbaa !21
  %92 = fcmp ogt float %91, %.03745
  %.138 = select i1 %92, float %91, float %.03745
  %indvars.iv.next = add nuw nsw i64 %indvars.iv, 1
  %exitcond.not = icmp eq i64 %indvars.iv.next, %wide.trip.count
  br i1 %exitcond.not, label %.preheader, label %.lr.ph, !llvm.loop !127

93:                                               ; preds = %.lr.ph51, %93
  %indvars.iv60 = phi i64 [ 0, %.lr.ph51 ], [ %indvars.iv.next61, %93 ]
  %94 = mul i64 %49, %indvars.iv60
  %95 = getelementptr inbounds nuw i8, ptr %46, i64 %94
  %96 = load float, ptr %95, align 4, !tbaa !21
  %97 = fdiv float %96, %.037.lcssa
  store float %97, ptr %95, align 4, !tbaa !21
  %indvars.iv.next61 = add nuw nsw i64 %indvars.iv60, 1
  %exitcond64.not = icmp eq i64 %indvars.iv.next61, %wide.trip.count63
  br i1 %exitcond64.not, label %._crit_edge52, label %93, !llvm.loop !129

._crit_edge52:                                    ; preds = %93, %3, %.preheader
  ret void
}